target datalayout = "e-m:e-p270:32:32-p271:32:32-p272:64:64-i64:64-i128:128-f80:128-n8:16:32:64-S128"
target triple = "x86_64-pc-linux-gnu"

%struct.jpeg_decompress_struct = type { ptr, ptr, ptr, ptr, i32, i32, ptr, i32, i32, i32, i32, i32, i32, i32, double, i32, i32, i32, i32, i32, i32, i32, i32, i32, i32, i32, i32, i32, i32, i32, i32, i32, i32, ptr, i32, i32, i32, i32, i32, ptr, [4 x ptr], [4 x ptr], [4 x ptr], i32, ptr, i32, i32, [16 x i8], [16 x i8], [16 x i8], i32, i32, i8, i8, i8, i16, i16, i32, i8, i32, ptr, i32, i32, i32, i32, ptr, i32, [4 x ptr], i32, i32, i32, [10 x i32], i32, i32, i32, i32, i32, ptr, ptr, ptr, ptr, ptr, ptr, ptr, ptr, ptr, ptr, ptr }
%struct.jpeg_error_mgr = type { ptr, ptr, ptr, ptr, ptr, i32, %union.anon, i32, i64, ptr, i32, ptr, i32, i32 }
%union.anon = type { [8 x i32], [48 x i8] }
%struct.d_derived_tbl = type { [18 x i32], [17 x i32], ptr, [256 x i32], [256 x i8] }
%struct.JHUFF_TBL = type { [17 x i8], [256 x i8], i32 }
%struct.bitread_working_state = type { ptr, i64, i32, i32, ptr }

; Function Attrs: nounwind uwtable
define hidden i32 @jHufDecode(ptr noundef %0, i32 noundef %1, i32 noundef %2, ptr noundef %3, i32 noundef %4) #0 {
  %6 = alloca i32, align 4
  %7 = alloca ptr, align 8
  %8 = alloca i32, align 4
  %9 = alloca i32, align 4
  %10 = alloca ptr, align 8
  %11 = alloca i32, align 4
  %12 = alloca i32, align 4
  %13 = alloca i32, align 4
  store ptr %0, ptr %7, align 8
  store i32 %1, ptr %8, align 4
  store i32 %2, ptr %9, align 4
  store ptr %3, ptr %10, align 8
  store i32 %4, ptr %11, align 4
  %14 = load i32, ptr %11, align 4
  store i32 %14, ptr %12, align 4
  %15 = load i32, ptr %9, align 4
  %16 = load i32, ptr %12, align 4
  %17 = icmp slt i32 %15, %16
  br i1 %17, label %18, label %33

18:                                               ; preds = %5
  %19 = load ptr, ptr %7, align 8
  %20 = load i32, ptr %8, align 4
  %21 = load i32, ptr %9, align 4
  %22 = load i32, ptr %12, align 4
  %23 = call i32 @jFilBitBuf(ptr noundef %19, i32 noundef %20, i32 noundef %21, i32 noundef %22)
  %24 = icmp ne i32 %23, 0
  br i1 %24, label %26, label %25

25:                                               ; preds = %18
  store i32 -1, ptr %6, align 4
  br label %124

26:                                               ; preds = %18
  %27 = load ptr, ptr %7, align 8
  %28 = getelementptr inbounds %struct.bitread_working_state, ptr %27, i32 0, i32 2
  %29 = load i32, ptr %28, align 8
  store i32 %29, ptr %8, align 4
  %30 = load ptr, ptr %7, align 8
  %31 = getelementptr inbounds %struct.bitread_working_state, ptr %30, i32 0, i32 3
  %32 = load i32, ptr %31, align 4
  store i32 %32, ptr %9, align 4
  br label %33

33:                                               ; preds = %26, %5
  %34 = load i32, ptr %8, align 4
  %35 = load i32, ptr %12, align 4
  %36 = load i32, ptr %9, align 4
  %37 = sub nsw i32 %36, %35
  store i32 %37, ptr %9, align 4
  %38 = ashr i32 %34, %37
  %39 = load i32, ptr %12, align 4
  %40 = shl i32 1, %39
  %41 = sub nsw i32 %40, 1
  %42 = and i32 %38, %41
  store i32 %42, ptr %13, align 4
  br label %43

43:                                               ; preds = %71, %33
  %44 = load i32, ptr %13, align 4
  %45 = load ptr, ptr %10, align 8
  %46 = getelementptr inbounds %struct.d_derived_tbl, ptr %45, i32 0, i32 0
  %47 = load i32, ptr %12, align 4
  %48 = sext i32 %47 to i64
  %49 = getelementptr inbounds [18 x i32], ptr %46, i64 0, i64 %48
  %50 = load i32, ptr %49, align 4
  %51 = icmp sgt i32 %44, %50
  br i1 %51, label %52, label %81

52:                                               ; preds = %43
  %53 = load i32, ptr %13, align 4
  %54 = shl i32 %53, 1
  store i32 %54, ptr %13, align 4
  %55 = load i32, ptr %9, align 4
  %56 = icmp slt i32 %55, 1
  br i1 %56, label %57, label %71

57:                                               ; preds = %52
  %58 = load ptr, ptr %7, align 8
  %59 = load i32, ptr %8, align 4
  %60 = load i32, ptr %9, align 4
  %61 = call i32 @jFilBitBuf(ptr noundef %58, i32 noundef %59, i32 noundef %60, i32 noundef 1)
  %62 = icmp ne i32 %61, 0
  br i1 %62, label %64, label %63

63:                                               ; preds = %57
  store i32 -1, ptr %6, align 4
  br label %124

64:                                               ; preds = %57
  %65 = load ptr, ptr %7, align 8
  %66 = getelementptr inbounds %struct.bitread_working_state, ptr %65, i32 0, i32 2
  %67 = load i32, ptr %66, align 8
  store i32 %67, ptr %8, align 4
  %68 = load ptr, ptr %7, align 8
  %69 = getelementptr inbounds %struct.bitread_working_state, ptr %68, i32 0, i32 3
  %70 = load i32, ptr %69, align 4
  store i32 %70, ptr %9, align 4
  br label %71

71:                                               ; preds = %64, %52
  %72 = load i32, ptr %8, align 4
  %73 = load i32, ptr %9, align 4
  %74 = sub nsw i32 %73, 1
  store i32 %74, ptr %9, align 4
  %75 = ashr i32 %72, %74
  %76 = and i32 %75, 1
  %77 = load i32, ptr %13, align 4
  %78 = or i32 %77, %76
  store i32 %78, ptr %13, align 4
  %79 = load i32, ptr %12, align 4
  %80 = add nsw i32 %79, 1
  store i32 %80, ptr %12, align 4
  br label %43, !llvm.loop !18

81:                                               ; preds = %43
  %82 = load i32, ptr %8, align 4
  %83 = load ptr, ptr %7, align 8
  %84 = getelementptr inbounds %struct.bitread_working_state, ptr %83, i32 0, i32 2
  store i32 %82, ptr %84, align 8
  %85 = load i32, ptr %9, align 4
  %86 = load ptr, ptr %7, align 8
  %87 = getelementptr inbounds %struct.bitread_working_state, ptr %86, i32 0, i32 3
  store i32 %85, ptr %87, align 4
  %88 = load i32, ptr %12, align 4
  %89 = icmp sgt i32 %88, 16
  br i1 %89, label %90, label %107

90:                                               ; preds = %81
  %91 = load ptr, ptr %7, align 8
  %92 = getelementptr inbounds %struct.bitread_working_state, ptr %91, i32 0, i32 4
  %93 = load ptr, ptr %92, align 8
  %94 = getelementptr inbounds %struct.jpeg_decompress_struct, ptr %93, i32 0, i32 0
  %95 = load ptr, ptr %94, align 8
  %96 = getelementptr inbounds %struct.jpeg_error_mgr, ptr %95, i32 0, i32 5
  store i32 118, ptr %96, align 8
  %97 = load ptr, ptr %7, align 8
  %98 = getelementptr inbounds %struct.bitread_working_state, ptr %97, i32 0, i32 4
  %99 = load ptr, ptr %98, align 8
  %100 = getelementptr inbounds %struct.jpeg_decompress_struct, ptr %99, i32 0, i32 0
  %101 = load ptr, ptr %100, align 8
  %102 = getelementptr inbounds %struct.jpeg_error_mgr, ptr %101, i32 0, i32 1
  %103 = load ptr, ptr %102, align 8
  %104 = load ptr, ptr %7, align 8
  %105 = getelementptr inbounds %struct.bitread_working_state, ptr %104, i32 0, i32 4
  %106 = load ptr, ptr %105, align 8
  call void %103(ptr noundef %106, i32 noundef -1)
  store i32 0, ptr %6, align 4
  br label %124

107:                                              ; preds = %81
  %108 = load ptr, ptr %10, align 8
  %109 = getelementptr inbounds %struct.d_derived_tbl, ptr %108, i32 0, i32 2
  %110 = load ptr, ptr %109, align 8
  %111 = getelementptr inbounds %struct.JHUFF_TBL, ptr %110, i32 0, i32 1
  %112 = load i32, ptr %13, align 4
  %113 = load ptr, ptr %10, align 8
  %114 = getelementptr inbounds %struct.d_derived_tbl, ptr %113, i32 0, i32 1
  %115 = load i32, ptr %12, align 4
  %116 = sext i32 %115 to i64
  %117 = getelementptr inbounds [17 x i32], ptr %114, i64 0, i64 %116
  %118 = load i32, ptr %117, align 4
  %119 = add nsw i32 %112, %118
  %120 = sext i32 %119 to i64
  %121 = getelementptr inbounds [256 x i8], ptr %111, i64 0, i64 %120
  %122 = load i8, ptr %121, align 1
  %123 = zext i8 %122 to i32
  store i32 %123, ptr %6, align 4
  br label %124

124:                                              ; preds = %107, %90, %63, %25
  %125 = load i32, ptr %6, align 4
  ret i32 %125
}