; Function Attrs: nounwind uwtable
define hidden range(i32 -1, 256) i32 @jHufDecode(ptr nocapture noundef %0, i32 noundef %1, i32 noundef %2, ptr nocapture noundef readonly %3, i32 noundef %4) local_unnamed_addr #0 {
  %6 = icmp slt i32 %2, %4
  br i1 %6, label %7, label %14

7:                                                ; preds = %5
  %8 = tail call i32 @jFilBitBuf(ptr noundef %0, i32 noundef %1, i32 noundef %2, i32 noundef %4)
  %.not = icmp eq i32 %8, 0
  br i1 %.not, label %.loopexit, label %9

9:                                                ; preds = %7
  %10 = getelementptr inbounds i8, ptr %0, i64 16
  %11 = load i32, ptr %10, align 8
  %12 = getelementptr inbounds i8, ptr %0, i64 20
  %13 = load i32, ptr %12, align 4
  br label %14

14:                                               ; preds = %9, %5
  %.042 = phi i32 [ %13, %9 ], [ %2, %5 ]
  %.041 = phi i32 [ %11, %9 ], [ %1, %5 ]
  %15 = sub nsw i32 %.042, %4
  %16 = ashr i32 %.041, %15
  %notmask = shl nsw i32 -1, %4
  %17 = xor i32 %notmask, -1
  %18 = and i32 %16, %17
  %19 = sext i32 %4 to i64
  %20 = getelementptr inbounds [18 x i32], ptr %3, i64 0, i64 %19
  %21 = load i32, ptr %20, align 4
  %22 = icmp sgt i32 %18, %21
  br i1 %22, label %.lr.ph, label %._crit_edge

.lr.ph:                                           ; preds = %14
  %23 = getelementptr inbounds i8, ptr %0, i64 16
  %24 = getelementptr inbounds i8, ptr %0, i64 20
  br label %25

25:                                               ; preds = %.lr.ph, %33
  %indvars.iv = phi i64 [ %19, %.lr.ph ], [ %indvars.iv.next, %33 ]
  %.057 = phi i32 [ %18, %.lr.ph ], [ %37, %33 ]
  %.155 = phi i32 [ %.041, %.lr.ph ], [ %.2, %33 ]
  %.14354 = phi i32 [ %15, %.lr.ph ], [ %34, %33 ]
  %26 = shl i32 %.057, 1
  %27 = icmp slt i32 %.14354, 1
  br i1 %27, label %28, label %33

28:                                               ; preds = %25
  %29 = tail call i32 @jFilBitBuf(ptr noundef %0, i32 noundef %.155, i32 noundef %.14354, i32 noundef 1)
  %.not48 = icmp eq i32 %29, 0
  br i1 %.not48, label %.loopexit, label %30

30:                                               ; preds = %28
  %31 = load i32, ptr %23, align 8
  %32 = load i32, ptr %24, align 4
  br label %33

33:                                               ; preds = %30, %25
  %.244 = phi i32 [ %32, %30 ], [ %.14354, %25 ]
  %.2 = phi i32 [ %31, %30 ], [ %.155, %25 ]
  %34 = add nsw i32 %.244, -1
  %35 = lshr i32 %.2, %34
  %36 = and i32 %35, 1
  %37 = or disjoint i32 %36, %26
  %indvars.iv.next = add nsw i64 %indvars.iv, 1
  %38 = getelementptr inbounds [18 x i32], ptr %3, i64 0, i64 %indvars.iv.next
  %39 = load i32, ptr %38, align 4
  %40 = icmp sgt i32 %37, %39
  br i1 %40, label %25, label %._crit_edge.loopexit, !llvm.loop !16

._crit_edge.loopexit:                             ; preds = %33
  %41 = trunc nsw i64 %indvars.iv.next to i32
  br label %._crit_edge

._crit_edge:                                      ; preds = %._crit_edge.loopexit, %14
  %.143.lcssa = phi i32 [ %15, %14 ], [ %34, %._crit_edge.loopexit ]
  %.1.lcssa = phi i32 [ %.041, %14 ], [ %.2, %._crit_edge.loopexit ]
  %.039.lcssa = phi i32 [ %4, %14 ], [ %41, %._crit_edge.loopexit ]
  %.0.lcssa = phi i32 [ %18, %14 ], [ %37, %._crit_edge.loopexit ]
  %.lcssa = phi i64 [ %19, %14 ], [ %indvars.iv.next, %._crit_edge.loopexit ]
  %42 = getelementptr inbounds i8, ptr %0, i64 16
  store i32 %.1.lcssa, ptr %42, align 8
  %43 = getelementptr inbounds i8, ptr %0, i64 20
  store i32 %.143.lcssa, ptr %43, align 4
  %44 = icmp sgt i32 %.039.lcssa, 16
  br i1 %44, label %45, label %54

45:                                               ; preds = %._crit_edge
  %46 = getelementptr inbounds i8, ptr %0, i64 24
  %47 = load ptr, ptr %46, align 8
  %48 = load ptr, ptr %47, align 8
  %49 = getelementptr inbounds i8, ptr %48, i64 40
  store i32 118, ptr %49, align 8
  %50 = load ptr, ptr %46, align 8
  %51 = load ptr, ptr %50, align 8
  %52 = getelementptr inbounds i8, ptr %51, i64 8
  %53 = load ptr, ptr %52, align 8
  tail call void %53(ptr noundef nonnull %50, i32 noundef -1) #3
  br label %.loopexit

54:                                               ; preds = %._crit_edge
  %55 = getelementptr inbounds i8, ptr %3, i64 144
  %56 = load ptr, ptr %55, align 8
  %57 = getelementptr inbounds i8, ptr %56, i64 17
  %58 = getelementptr inbounds i8, ptr %3, i64 72
  %59 = getelementptr inbounds [17 x i32], ptr %58, i64 0, i64 %.lcssa
  %60 = load i32, ptr %59, align 4
  %61 = add nsw i32 %60, %.0.lcssa
  %62 = sext i32 %61 to i64
  %63 = getelementptr inbounds [256 x i8], ptr %57, i64 0, i64 %62
  %64 = load i8, ptr %63, align 1
  %65 = zext i8 %64 to i32
  br label %.loopexit

.loopexit:                                        ; preds = %28, %7, %54, %45
  %.040 = phi i32 [ 0, %45 ], [ %65, %54 ], [ -1, %7 ], [ -1, %28 ]
  ret i32 %.040
}